target datalayout = "e-m:e-p270:32:32-p271:32:32-p272:64:64-i64:64-i128:128-f80:128-n8:16:32:64-S128"
target triple = "x86_64-pc-linux-gnu"

@.str = private unnamed_addr constant [26 x i8] c"../openssl/test/pemtest.c\00", align 1
@pemfile = internal global ptr null, align 8
@.str.27 = private unnamed_addr constant [35 x i8] c"key = load_pkey_pem(pemfile, NULL)\00", align 1

; Function Attrs: nounwind uwtable
define internal i32 @test_cert_key_cert() #0 {
  %1 = alloca i32, align 4
  %2 = alloca ptr, align 8
  %3 = alloca i32, align 4
  call void @llvm.lifetime.start.p0(i64 8, ptr %2) #4
  %4 = load ptr, ptr @pemfile, align 8, !tbaa !4
  %5 = call ptr @load_pkey_pem(ptr noundef %4, ptr noundef null)
  store ptr %5, ptr %2, align 8, !tbaa !18
  %6 = call i32 @test_ptr(ptr noundef @.str, i32 noundef 92, ptr noundef @.str.27, ptr noundef %5)
  %7 = icmp ne i32 %6, 0
  br i1 %7, label %9, label %8

8:                                                ; preds = %0
  store i32 0, ptr %1, align 4
  store i32 1, ptr %3, align 4
  br label %11

9:                                                ; preds = %0
  %10 = load ptr, ptr %2, align 8, !tbaa !18
  call void @EVP_PKEY_free(ptr noundef %10)
  store i32 1, ptr %1, align 4
  store i32 1, ptr %3, align 4
  br label %11

11:                                               ; preds = %9, %8
  call void @llvm.lifetime.end.p0(i64 8, ptr %2) #4
  %12 = load i32, ptr %1, align 4
  ret i32 %12
}