; Function Attrs: nounwind uwtable
define internal range(i32 0, 2) i32 @test_cert_key_cert() #0 {
  %1 = load ptr, ptr @pemfile, align 8, !tbaa !4
  %2 = tail call ptr @load_pkey_pem(ptr noundef %1, ptr noundef null) #4
  %3 = tail call i32 @test_ptr(ptr noundef nonnull @.str, i32 noundef 92, ptr noundef nonnull @.str.27, ptr noundef %2) #4
  %.not = icmp eq i32 %3, 0
  br i1 %.not, label %5, label %4

4:                                                ; preds = %0
  tail call void @EVP_PKEY_free(ptr noundef %2) #4
  br label %5

5:                                                ; preds = %0, %4
  %.0 = phi i32 [ 1, %4 ], [ 0, %0 ]
  ret i32 %.0
}